target datalayout = "e-m:e-p270:32:32-p271:32:32-p272:64:64-i64:64-i128:128-f80:128-n8:16:32:64-S128"
target triple = "x86_64-pc-linux-gnu"

%struct.pmix_mca_base_framework_t = type { ptr, ptr, ptr, ptr, ptr, ptr, i32, i32, ptr, ptr, i32, i32, %struct.pmix_list_t, %struct.pmix_list_t }
%struct.pmix_list_t = type { %struct.pmix_object_t, %struct.pmix_list_item_t, i64 }
%struct.pmix_object_t = type { %union.pthread_mutex_t, ptr, i32, %struct.pmix_tma }
%union.pthread_mutex_t = type { %struct.__pthread_mutex_s }
%struct.__pthread_mutex_s = type { i32, i32, i32, i32, i32, i16, i16, %struct.__pthread_internal_list }
%struct.__pthread_internal_list = type { ptr, ptr }
%struct.pmix_tma = type { ptr, ptr, ptr, ptr, ptr, ptr, ptr, ptr }
%struct.pmix_list_item_t = type { %struct.pmix_object_t, ptr, ptr, i32 }
%struct.pmix_output_desc_t = type { i8, i8, i32, i8, i32, ptr, ptr, i32, ptr, i32, i8, i8, i8, i8, ptr, i32, i32 }
%struct.prte_process_info_t = type { %struct.pmix_proc, %struct.pmix_proc, ptr, %struct.pmix_proc, i32, i32, i32, ptr, ptr, i32, i8, ptr, i16, ptr, ptr, i8, ptr, i8 }
%struct.pmix_proc = type { [256 x i8], i32 }
%struct.pmix_pointer_array_t = type { %struct.pmix_object_t, i32, i32, i32, i32, i32, ptr, ptr }
%struct.prte_proc_t = type { %struct.pmix_list_item_t, %struct.pmix_proc, i32, i32, i16, i16, i32, i16, i32, i32, i32, i32, ptr, ptr, ptr, ptr, i16, %struct.pmix_list_t }

@.str = private unnamed_addr constant [37 x i8] c"PRTE ERROR: %s in file %s at line %d\00", align 1
@.str.1 = private unnamed_addr constant [29 x i8] c"base/odls_base_default_fns.c\00", align 1
@prte_odls_base_framework = external global %struct.pmix_mca_base_framework_t, align 8
@pmix_output_info = external global [0 x %struct.pmix_output_desc_t], align 8
@prte_process_info = external global %struct.prte_process_info_t, align 8
@.str.18 = private unnamed_addr constant [5 x i8] c"NULL\00", align 1
@prte_local_children = external global ptr, align 8
@.str.50 = private unnamed_addr constant [27 x i8] c"%s odls: signaling proc %s\00", align 1

; Function Attrs: inlinehint nounwind uwtable
define internal ptr @pmix_pointer_array_get_item(ptr noundef %0, i32 noundef %1) #4 {
  %3 = alloca ptr, align 8
  %4 = alloca ptr, align 8
  %5 = alloca i32, align 4
  %6 = alloca ptr, align 8
  %7 = alloca i32, align 4
  store ptr %0, ptr %4, align 8, !tbaa !32
  store i32 %1, ptr %5, align 4, !tbaa !31
  call void @llvm.lifetime.start.p0(i64 8, ptr %6) #13
  %8 = load i32, ptr %5, align 4, !tbaa !31
  %9 = icmp sgt i32 0, %8
  br i1 %9, label %16, label %10

10:                                               ; preds = %2
  %11 = load ptr, ptr %4, align 8, !tbaa !32
  %12 = getelementptr inbounds nuw %struct.pmix_pointer_array_t, ptr %11, i32 0, i32 3
  %13 = load i32, ptr %12, align 8, !tbaa !33
  %14 = load i32, ptr %5, align 4, !tbaa !31
  %15 = icmp sle i32 %13, %14
  br label %16

16:                                               ; preds = %10, %2
  %17 = phi i1 [ true, %2 ], [ %15, %10 ]
  %18 = xor i1 %17, true
  %19 = xor i1 %18, true
  %20 = zext i1 %19 to i32
  %21 = sext i32 %20 to i64
  %22 = call i64 @llvm.expect.i64(i64 %21, i64 0)
  %23 = icmp ne i64 %22, 0
  br i1 %23, label %24, label %25

24:                                               ; preds = %16
  store ptr null, ptr %3, align 8
  store i32 1, ptr %7, align 4
  br label %34

25:                                               ; preds = %16
  %26 = load ptr, ptr %4, align 8, !tbaa !32
  %27 = getelementptr inbounds nuw %struct.pmix_pointer_array_t, ptr %26, i32 0, i32 7
  %28 = load ptr, ptr %27, align 8, !tbaa !76
  %29 = load i32, ptr %5, align 4, !tbaa !31
  %30 = sext i32 %29 to i64
  %31 = getelementptr inbounds ptr, ptr %28, i64 %30
  %32 = load ptr, ptr %31, align 8, !tbaa !10
  store ptr %32, ptr %6, align 8, !tbaa !10
  %33 = load ptr, ptr %6, align 8, !tbaa !10
  store ptr %33, ptr %3, align 8
  store i32 1, ptr %7, align 4
  br label %34

34:                                               ; preds = %25, %24
  call void @llvm.lifetime.end.p0(i64 8, ptr %6) #13
  %35 = load ptr, ptr %3, align 8
  ret ptr %35
}

; Function Attrs: nounwind uwtable
define i32 @prte_odls_base_default_signal_local_procs(ptr noundef %0, i32 noundef %1, ptr noundef %2) #0 {
  %4 = alloca i32, align 4
  %5 = alloca ptr, align 8
  %6 = alloca i32, align 4
  %7 = alloca ptr, align 8
  %8 = alloca i32, align 4
  %9 = alloca i32, align 4
  %10 = alloca ptr, align 8
  %11 = alloca i32, align 4
  store ptr %0, ptr %5, align 8, !tbaa !193
  store i32 %1, ptr %6, align 4, !tbaa !31
  store ptr %2, ptr %7, align 8, !tbaa !10
  call void @llvm.lifetime.start.p0(i64 4, ptr %8) #13
  call void @llvm.lifetime.start.p0(i64 4, ptr %9) #13
  call void @llvm.lifetime.start.p0(i64 8, ptr %10) #13
  %12 = load i32, ptr getelementptr inbounds nuw (%struct.pmix_mca_base_framework_t, ptr @prte_odls_base_framework, i32 0, i32 11), align 4, !tbaa !102
  %13 = icmp sge i32 %12, 0
  br i1 %13, label %14, label %35

14:                                               ; preds = %3
  %15 = load i32, ptr getelementptr inbounds nuw (%struct.pmix_mca_base_framework_t, ptr @prte_odls_base_framework, i32 0, i32 11), align 4, !tbaa !102
  %16 = icmp slt i32 %15, 64
  br i1 %16, label %17, label %35

17:                                               ; preds = %14
  %18 = load i32, ptr getelementptr inbounds nuw (%struct.pmix_mca_base_framework_t, ptr @prte_odls_base_framework, i32 0, i32 11), align 4, !tbaa !102
  %19 = sext i32 %18 to i64
  %20 = getelementptr inbounds [0 x %struct.pmix_output_desc_t], ptr @pmix_output_info, i64 0, i64 %19
  %21 = getelementptr inbounds nuw %struct.pmix_output_desc_t, ptr %20, i32 0, i32 2
  %22 = load i32, ptr %21, align 4, !tbaa !103
  %23 = icmp sge i32 %22, 5
  br i1 %23, label %24, label %35

24:                                               ; preds = %17
  %25 = load i32, ptr getelementptr inbounds nuw (%struct.pmix_mca_base_framework_t, ptr @prte_odls_base_framework, i32 0, i32 11), align 4, !tbaa !102
  %26 = call ptr @prte_util_print_name_args(ptr noundef @prte_process_info)
  %27 = load ptr, ptr %5, align 8, !tbaa !193
  %28 = icmp eq ptr null, %27
  br i1 %28, label %29, label %30

29:                                               ; preds = %24
  br label %33

30:                                               ; preds = %24
  %31 = load ptr, ptr %5, align 8, !tbaa !193
  %32 = call ptr @prte_util_print_name_args(ptr noundef %31)
  br label %33

33:                                               ; preds = %30, %29
  %34 = phi ptr [ @.str.18, %29 ], [ %32, %30 ]
  call void (i32, ptr, ...) @pmix_output(i32 noundef %25, ptr noundef @.str.50, ptr noundef %26, ptr noundef %34)
  br label %35

35:                                               ; preds = %33, %17, %14, %3
  %36 = load ptr, ptr %5, align 8, !tbaa !193
  %37 = icmp eq ptr null, %36
  br i1 %37, label %38, label %89

38:                                               ; preds = %35
  store i32 0, ptr %8, align 4, !tbaa !31
  store i32 0, ptr %9, align 4, !tbaa !31
  br label %39

39:                                               ; preds = %84, %38
  %40 = load i32, ptr %9, align 4, !tbaa !31
  %41 = load ptr, ptr @prte_local_children, align 8, !tbaa !32
  %42 = getelementptr inbounds nuw %struct.pmix_pointer_array_t, ptr %41, i32 0, i32 3
  %43 = load i32, ptr %42, align 8, !tbaa !33
  %44 = icmp slt i32 %40, %43
  br i1 %44, label %45, label %87

45:                                               ; preds = %39
  %46 = load ptr, ptr @prte_local_children, align 8, !tbaa !32
  %47 = load i32, ptr %9, align 4, !tbaa !31
  %48 = call ptr @pmix_pointer_array_get_item(ptr noundef %46, i32 noundef %47)
  store ptr %48, ptr %10, align 8, !tbaa !37
  %49 = load ptr, ptr %10, align 8, !tbaa !37
  %50 = icmp eq ptr null, %49
  br i1 %50, label %51, label %52

51:                                               ; preds = %45
  br label %84

52:                                               ; preds = %45
  %53 = load ptr, ptr %10, align 8, !tbaa !37
  %54 = getelementptr inbounds nuw %struct.prte_proc_t, ptr %53, i32 0, i32 3
  %55 = load i32, ptr %54, align 8, !tbaa !166
  %56 = icmp eq i32 0, %55
  br i1 %56, label %64, label %57

57:                                               ; preds = %52
  %58 = load ptr, ptr %10, align 8, !tbaa !37
  %59 = getelementptr inbounds nuw %struct.prte_proc_t, ptr %58, i32 0, i32 16
  %60 = load i16, ptr %59, align 8, !tbaa !136
  %61 = zext i16 %60 to i32
  %62 = and i32 %61, 1
  %63 = icmp ne i32 %62, 0
  br i1 %63, label %65, label %64

64:                                               ; preds = %57, %52
  br label %84

65:                                               ; preds = %57
  %66 = load ptr, ptr %7, align 8, !tbaa !10
  %67 = load ptr, ptr %10, align 8, !tbaa !37
  %68 = getelementptr inbounds nuw %struct.prte_proc_t, ptr %67, i32 0, i32 3
  %69 = load i32, ptr %68, align 8, !tbaa !166
  %70 = load i32, ptr %6, align 4, !tbaa !31
  %71 = call i32 %66(i32 noundef %69, i32 noundef %70)
  store i32 %71, ptr %8, align 4, !tbaa !31
  %72 = icmp ne i32 0, %71
  br i1 %72, label %73, label %83

73:                                               ; preds = %65
  br label %74

74:                                               ; preds = %73
  %75 = load i32, ptr %8, align 4, !tbaa !31
  %76 = icmp ne i32 -43, %75
  br i1 %76, label %77, label %80

77:                                               ; preds = %74
  %78 = load i32, ptr %8, align 4, !tbaa !31
  %79 = call ptr @prte_strerror(i32 noundef %78)
  call void (i32, ptr, ...) @pmix_output(i32 noundef 0, ptr noundef @.str, ptr noundef %79, ptr noundef @.str.1, i32 noundef 1503)
  br label %80

80:                                               ; preds = %77, %74
  br label %81

81:                                               ; preds = %80
  br label %82

82:                                               ; preds = %81
  br label %83

83:                                               ; preds = %82, %65
  br label %84

84:                                               ; preds = %83, %64, %51
  %85 = load i32, ptr %9, align 4, !tbaa !31
  %86 = add nsw i32 %85, 1
  store i32 %86, ptr %9, align 4, !tbaa !31
  br label %39, !llvm.loop !240

87:                                               ; preds = %39
  %88 = load i32, ptr %8, align 4, !tbaa !31
  store i32 %88, ptr %4, align 4
  store i32 1, ptr %11, align 4
  br label %137

89:                                               ; preds = %35
  store i32 0, ptr %9, align 4, !tbaa !31
  br label %90

90:                                               ; preds = %129, %89
  %91 = load i32, ptr %9, align 4, !tbaa !31
  %92 = load ptr, ptr @prte_local_children, align 8, !tbaa !32
  %93 = getelementptr inbounds nuw %struct.pmix_pointer_array_t, ptr %92, i32 0, i32 3
  %94 = load i32, ptr %93, align 8, !tbaa !33
  %95 = icmp slt i32 %91, %94
  br i1 %95, label %96, label %132

96:                                               ; preds = %90
  %97 = load ptr, ptr @prte_local_children, align 8, !tbaa !32
  %98 = load i32, ptr %9, align 4, !tbaa !31
  %99 = call ptr @pmix_pointer_array_get_item(ptr noundef %97, i32 noundef %98)
  store ptr %99, ptr %10, align 8, !tbaa !37
  %100 = load ptr, ptr %10, align 8, !tbaa !37
  %101 = icmp eq ptr null, %100
  br i1 %101, label %102, label %103

102:                                              ; preds = %96
  br label %129

103:                                              ; preds = %96
  %104 = load ptr, ptr %10, align 8, !tbaa !37
  %105 = getelementptr inbounds nuw %struct.prte_proc_t, ptr %104, i32 0, i32 1
  %106 = load ptr, ptr %5, align 8, !tbaa !193
  %107 = call zeroext i1 @PMIx_Check_procid(ptr noundef %105, ptr noundef %106)
  br i1 %107, label %108, label %128

108:                                              ; preds = %103
  %109 = load ptr, ptr %7, align 8, !tbaa !10
  %110 = load ptr, ptr %10, align 8, !tbaa !37
  %111 = getelementptr inbounds nuw %struct.prte_proc_t, ptr %110, i32 0, i32 3
  %112 = load i32, ptr %111, align 8, !tbaa !166
  %113 = load i32, ptr %6, align 4, !tbaa !31
  %114 = call i32 %109(i32 noundef %112, i32 noundef %113)
  store i32 %114, ptr %8, align 4, !tbaa !31
  %115 = icmp ne i32 0, %114
  br i1 %115, label %116, label %126

116:                                              ; preds = %108
  br label %117

117:                                              ; preds = %116
  %118 = load i32, ptr %8, align 4, !tbaa !31
  %119 = icmp ne i32 -43, %118
  br i1 %119, label %120, label %123

120:                                              ; preds = %117
  %121 = load i32, ptr %8, align 4, !tbaa !31
  %122 = call ptr @prte_strerror(i32 noundef %121)
  call void (i32, ptr, ...) @pmix_output(i32 noundef 0, ptr noundef @.str, ptr noundef %122, ptr noundef @.str.1, i32 noundef 1517)
  br label %123

123:                                              ; preds = %120, %117
  br label %124

124:                                              ; preds = %123
  br label %125

125:                                              ; preds = %124
  br label %126

126:                                              ; preds = %125, %108
  %127 = load i32, ptr %8, align 4, !tbaa !31
  store i32 %127, ptr %4, align 4
  store i32 1, ptr %11, align 4
  br label %137

128:                                              ; preds = %103
  br label %129

129:                                              ; preds = %128, %102
  %130 = load i32, ptr %9, align 4, !tbaa !31
  %131 = add nsw i32 %130, 1
  store i32 %131, ptr %9, align 4, !tbaa !31
  br label %90, !llvm.loop !241

132:                                              ; preds = %90
  br label %133

133:                                              ; preds = %132
  %134 = call ptr @prte_strerror(i32 noundef -13)
  call void (i32, ptr, ...) @pmix_output(i32 noundef 0, ptr noundef @.str, ptr noundef %134, ptr noundef @.str.1, i32 noundef 1526)
  br label %135

135:                                              ; preds = %133
  br label %136

136:                                              ; preds = %135
  store i32 -13, ptr %4, align 4
  store i32 1, ptr %11, align 4
  br label %137

137:                                              ; preds = %136, %126, %87
  call void @llvm.lifetime.end.p0(i64 8, ptr %10) #13
  call void @llvm.lifetime.end.p0(i64 4, ptr %9) #13
  call void @llvm.lifetime.end.p0(i64 4, ptr %8) #13
  %138 = load i32, ptr %4, align 4
  ret i32 %138
}