; Function Attrs: nounwind uwtable
define i32 @prte_odls_base_default_signal_local_procs(ptr noundef %0, i32 noundef %1, ptr noundef readonly captures(none) %2) local_unnamed_addr #0 {
  %4 = load i32, ptr getelementptr inbounds nuw (i8, ptr @prte_odls_base_framework, i64 76), align 4, !tbaa !84
  %or.cond = icmp ult i32 %4, 64
  br i1 %or.cond, label %5, label %17

5:                                                ; preds = %3
  %6 = zext nneg i32 %4 to i64
  %7 = getelementptr inbounds nuw [0 x %struct.pmix_output_desc_t], ptr @pmix_output_info, i64 0, i64 %6, i32 2
  %8 = load i32, ptr %7, align 4, !tbaa !85
  %9 = icmp sgt i32 %8, 4
  br i1 %9, label %10, label %17

10:                                               ; preds = %5
  %11 = tail call ptr @prte_util_print_name_args(ptr noundef nonnull @prte_process_info) #16
  %12 = icmp eq ptr %0, null
  br i1 %12, label %15, label %13

13:                                               ; preds = %10
  %14 = tail call ptr @prte_util_print_name_args(ptr noundef nonnull %0) #16
  br label %15

15:                                               ; preds = %10, %13
  %16 = phi ptr [ %14, %13 ], [ @.str.18, %10 ]
  tail call void (i32, ptr, ...) @pmix_output(i32 noundef %4, ptr noundef nonnull @.str.50, ptr noundef %11, ptr noundef %16) #16
  br label %17

17:                                               ; preds = %15, %5, %3
  %18 = icmp eq ptr %0, null
  %19 = load ptr, ptr @prte_local_children, align 8, !tbaa !26
  %20 = getelementptr inbounds nuw i8, ptr %19, i64 128
  %21 = load i32, ptr %20, align 8, !tbaa !27
  %22 = icmp sgt i32 %21, 0
  br i1 %18, label %.preheader, label %.preheader46

.preheader46:                                     ; preds = %17
  br i1 %22, label %pmix_pointer_array_get_item.exit45, label %.loopexit.sink.split

.preheader:                                       ; preds = %17
  br i1 %22, label %pmix_pointer_array_get_item.exit, label %.loopexit

pmix_pointer_array_get_item.exit:                 ; preds = %.preheader, %41
  %indvars.iv52 = phi i64 [ %indvars.iv.next53, %41 ], [ 0, %.preheader ]
  %23 = phi ptr [ %42, %41 ], [ %19, %.preheader ]
  %.03248 = phi i32 [ %.133, %41 ], [ 0, %.preheader ]
  %24 = getelementptr inbounds nuw i8, ptr %23, i64 152
  %25 = load ptr, ptr %24, align 8, !tbaa !30
  %26 = getelementptr inbounds nuw ptr, ptr %25, i64 %indvars.iv52
  %27 = load ptr, ptr %26, align 8, !tbaa !31
  %28 = icmp eq ptr %27, null
  br i1 %28, label %41, label %29

29:                                               ; preds = %pmix_pointer_array_get_item.exit
  %30 = getelementptr inbounds nuw i8, ptr %27, i64 408
  %31 = load i32, ptr %30, align 8, !tbaa !142
  %32 = icmp eq i32 %31, 0
  br i1 %32, label %41, label %33

33:                                               ; preds = %29
  %34 = getelementptr inbounds nuw i8, ptr %27, i64 472
  %35 = load i16, ptr %34, align 8, !tbaa !116
  %36 = and i16 %35, 1
  %.not = icmp eq i16 %36, 0
  br i1 %.not, label %41, label %37

37:                                               ; preds = %33
  %38 = tail call i32 %2(i32 noundef %31, i32 noundef %1) #16
  switch i32 %38, label %39 [
    i32 -43, label %41
    i32 0, label %41
  ]

39:                                               ; preds = %37
  %40 = tail call ptr @prte_strerror(i32 noundef %38) #16
  tail call void (i32, ptr, ...) @pmix_output(i32 noundef 0, ptr noundef nonnull @.str, ptr noundef %40, ptr noundef nonnull @.str.1, i32 noundef 1503) #16
  br label %41

41:                                               ; preds = %37, %37, %39, %29, %33, %pmix_pointer_array_get_item.exit
  %.133 = phi i32 [ %.03248, %pmix_pointer_array_get_item.exit ], [ %.03248, %29 ], [ %38, %39 ], [ %38, %37 ], [ %.03248, %33 ], [ %38, %37 ]
  %indvars.iv.next53 = add nuw nsw i64 %indvars.iv52, 1
  %42 = load ptr, ptr @prte_local_children, align 8, !tbaa !26
  %43 = getelementptr inbounds nuw i8, ptr %42, i64 128
  %44 = load i32, ptr %43, align 8, !tbaa !27
  %45 = sext i32 %44 to i64
  %46 = icmp slt i64 %indvars.iv.next53, %45
  br i1 %46, label %pmix_pointer_array_get_item.exit, label %.loopexit, !llvm.loop !209

pmix_pointer_array_get_item.exit45:               ; preds = %.preheader46, %60
  %47 = phi ptr [ %61, %60 ], [ %19, %.preheader46 ]
  %indvars.iv = phi i64 [ %indvars.iv.next, %60 ], [ 0, %.preheader46 ]
  %48 = getelementptr inbounds nuw i8, ptr %47, i64 152
  %49 = load ptr, ptr %48, align 8, !tbaa !30
  %50 = getelementptr inbounds nuw ptr, ptr %49, i64 %indvars.iv
  %51 = load ptr, ptr %50, align 8, !tbaa !31
  %52 = icmp eq ptr %51, null
  br i1 %52, label %60, label %53

53:                                               ; preds = %pmix_pointer_array_get_item.exit45
  %54 = getelementptr inbounds nuw i8, ptr %51, i64 144
  %55 = tail call zeroext i1 @PMIx_Check_procid(ptr noundef nonnull %54, ptr noundef nonnull %0) #16
  br i1 %55, label %56, label %._crit_edge55

._crit_edge55:                                    ; preds = %53
  %.pre = load ptr, ptr @prte_local_children, align 8, !tbaa !26
  br label %60

56:                                               ; preds = %53
  %57 = getelementptr inbounds nuw i8, ptr %51, i64 408
  %58 = load i32, ptr %57, align 8, !tbaa !142
  %59 = tail call i32 %2(i32 noundef %58, i32 noundef %1) #16
  switch i32 %59, label %.loopexit.sink.split [
    i32 -43, label %.loopexit
    i32 0, label %.loopexit
  ]

60:                                               ; preds = %._crit_edge55, %pmix_pointer_array_get_item.exit45
  %61 = phi ptr [ %.pre, %._crit_edge55 ], [ %47, %pmix_pointer_array_get_item.exit45 ]
  %indvars.iv.next = add nuw nsw i64 %indvars.iv, 1
  %62 = getelementptr inbounds nuw i8, ptr %61, i64 128
  %63 = load i32, ptr %62, align 8, !tbaa !27
  %64 = sext i32 %63 to i64
  %65 = icmp slt i64 %indvars.iv.next, %64
  br i1 %65, label %pmix_pointer_array_get_item.exit45, label %.loopexit.sink.split, !llvm.loop !210

.loopexit.sink.split:                             ; preds = %60, %.preheader46, %56
  %.sink58 = phi i32 [ %59, %56 ], [ -13, %.preheader46 ], [ -13, %60 ]
  %.sink57 = phi i32 [ 1517, %56 ], [ 1526, %.preheader46 ], [ 1526, %60 ]
  %66 = tail call ptr @prte_strerror(i32 noundef %.sink58) #16
  tail call void (i32, ptr, ...) @pmix_output(i32 noundef 0, ptr noundef nonnull @.str, ptr noundef %66, ptr noundef nonnull @.str.1, i32 noundef %.sink57) #16
  br label %.loopexit

.loopexit:                                        ; preds = %41, %.loopexit.sink.split, %.preheader, %56, %56
  %.034 = phi i32 [ %59, %56 ], [ %59, %56 ], [ 0, %.preheader ], [ %.sink58, %.loopexit.sink.split ], [ %.133, %41 ]
  ret i32 %.034
}